target datalayout = "e-m:e-p270:32:32-p271:32:32-p272:64:64-i64:64-i128:128-f80:128-n8:16:32:64-S128"
target triple = "x86_64-unknown-linux-gnu"

%struct.timespec = type { i64, i64 }
%"class.EA::StdC::Stopwatch" = type { i64, i64, i32, float }

@_ZN12_GLOBAL__N_131mnStopwatchCycleReadingOverheadE = internal global i64 0, align 8

; Function Attrs: mustprogress nounwind uwtable
define linkonce_odr dso_local noundef i64 @_ZN2EA4StdC9Stopwatch17GetStopwatchCycleEv() #1 comdat align 2 {
entry:
  %ts = alloca %struct.timespec, align 8
  %result = alloca i32, align 4
  %nNanoseconds = alloca i64, align 8
  %call = call i32 @clock_gettime(i32 noundef 1, ptr noundef %ts) #6
  store i32 %call, ptr %result, align 4
  %0 = load i32, ptr %result, align 4
  %cmp = icmp eq i32 %0, 22
  br i1 %cmp, label %if.then, label %if.end

if.then:                                          ; preds = %entry
  %call1 = call i32 @clock_gettime(i32 noundef 0, ptr noundef %ts) #6
  store i32 %call1, ptr %result, align 4
  br label %if.end

if.end:                                           ; preds = %if.then, %entry
  %tv_nsec = getelementptr inbounds %struct.timespec, ptr %ts, i32 0, i32 1
  %1 = load i64, ptr %tv_nsec, align 8
  %tv_sec = getelementptr inbounds %struct.timespec, ptr %ts, i32 0, i32 0
  %2 = load i64, ptr %tv_sec, align 8
  %mul = mul i64 %2, 1000000000
  %add = add i64 %1, %mul
  store i64 %add, ptr %nNanoseconds, align 8
  %3 = load i64, ptr %nNanoseconds, align 8
  ret i64 %3
}

; Function Attrs: mustprogress nounwind uwtable
define linkonce_odr dso_local noundef i64 @_ZN2EA4StdC9Stopwatch11GetCPUCycleEv() #1 comdat align 2 {
entry:
  %0 = call i64 @llvm.x86.rdtsc()
  ret i64 %0
}

; Function Attrs: mustprogress uwtable
define dso_local noundef float @_ZNK2EA4StdC9Stopwatch19GetElapsedTimeFloatEv(ptr noundef nonnull align 8 dereferenceable(24) %this) #0 align 2 {
entry:
  %this.addr = alloca ptr, align 8
  %nFinalTotalElapsedTime64 = alloca i64, align 8
  %nCurrentTime = alloca i64, align 8
  %nElapsed = alloca i64, align 8
  %nElapsedTime = alloca i64, align 8
  store ptr %this, ptr %this.addr, align 8
  %this1 = load ptr, ptr %this.addr, align 8
  %mnTotalElapsedTime = getelementptr inbounds %"class.EA::StdC::Stopwatch", ptr %this1, i32 0, i32 1
  %0 = load i64, ptr %mnTotalElapsedTime, align 8
  store i64 %0, ptr %nFinalTotalElapsedTime64, align 8
  %mnStartTime = getelementptr inbounds %"class.EA::StdC::Stopwatch", ptr %this1, i32 0, i32 0
  %1 = load i64, ptr %mnStartTime, align 8
  %tobool = icmp ne i64 %1, 0
  br i1 %tobool, label %if.then, label %if.end11

if.then:                                          ; preds = %entry
  %mnUnits = getelementptr inbounds %"class.EA::StdC::Stopwatch", ptr %this1, i32 0, i32 2
  %2 = load i32, ptr %mnUnits, align 8
  %cmp = icmp eq i32 %2, 1
  br i1 %cmp, label %if.then2, label %if.else

if.then2:                                         ; preds = %if.then
  %call = call noundef i64 @_ZN2EA4StdC9Stopwatch11GetCPUCycleEv()
  store i64 %call, ptr %nCurrentTime, align 8
  br label %if.end

if.else:                                          ; preds = %if.then
  %call3 = call noundef i64 @_ZN2EA4StdC9Stopwatch17GetStopwatchCycleEv()
  store i64 %call3, ptr %nCurrentTime, align 8
  br label %if.end

if.end:                                           ; preds = %if.else, %if.then2
  %3 = load i64, ptr %nCurrentTime, align 8
  %mnStartTime4 = getelementptr inbounds %"class.EA::StdC::Stopwatch", ptr %this1, i32 0, i32 0
  %4 = load i64, ptr %mnStartTime4, align 8
  %sub = sub i64 %3, %4
  store i64 %sub, ptr %nElapsed, align 8
  %5 = load i64, ptr %nElapsed, align 8
  store i64 %5, ptr %nElapsedTime, align 8
  %6 = load i64, ptr %nElapsedTime, align 8
  %7 = load i64, ptr @_ZN12_GLOBAL__N_131mnStopwatchCycleReadingOverheadE, align 8
  %cmp5 = icmp ugt i64 %6, %7
  br i1 %cmp5, label %if.then6, label %if.else8

if.then6:                                         ; preds = %if.end
  %8 = load i64, ptr %nElapsedTime, align 8
  %9 = load i64, ptr @_ZN12_GLOBAL__N_131mnStopwatchCycleReadingOverheadE, align 8
  %sub7 = sub i64 %8, %9
  %10 = load i64, ptr %nFinalTotalElapsedTime64, align 8
  %add = add i64 %10, %sub7
  store i64 %add, ptr %nFinalTotalElapsedTime64, align 8
  br label %if.end10

if.else8:                                         ; preds = %if.end
  %11 = load i64, ptr %nFinalTotalElapsedTime64, align 8
  %add9 = add i64 %11, 1
  store i64 %add9, ptr %nFinalTotalElapsedTime64, align 8
  br label %if.end10

if.end10:                                         ; preds = %if.else8, %if.then6
  br label %if.end11

if.end11:                                         ; preds = %if.end10, %entry
  %12 = load i64, ptr %nFinalTotalElapsedTime64, align 8
  %conv = uitofp i64 %12 to float
  %mfStopwatchCyclesToUnitsCoefficient = getelementptr inbounds %"class.EA::StdC::Stopwatch", ptr %this1, i32 0, i32 3
  %13 = load float, ptr %mfStopwatchCyclesToUnitsCoefficient, align 4
  %mul = fmul float %conv, %13
  ret float %mul
}