; Function Attrs: mustprogress nounwind uwtable
define dso_local noundef float @_ZNK2EA4StdC9Stopwatch19GetElapsedTimeFloatEv(ptr noundef nonnull readonly align 8 captures(none) dereferenceable(24) %this) local_unnamed_addr #0 align 2 {
entry:
  %ts.i = alloca %struct.timespec, align 8
  %mnTotalElapsedTime = getelementptr inbounds nuw i8, ptr %this, i64 8
  %0 = load i64, ptr %mnTotalElapsedTime, align 8
  %1 = load i64, ptr %this, align 8
  %tobool.not = icmp eq i64 %1, 0
  br i1 %tobool.not, label %if.end11, label %if.then

if.then:                                          ; preds = %entry
  %mnUnits = getelementptr inbounds nuw i8, ptr %this, i64 16
  %2 = load i32, ptr %mnUnits, align 8
  %cmp = icmp eq i32 %2, 1
  br i1 %cmp, label %if.then2, label %if.else

if.then2:                                         ; preds = %if.then
  %3 = tail call noundef i64 @llvm.x86.rdtsc()
  br label %if.end

if.else:                                          ; preds = %if.then
  call void @llvm.lifetime.start.p0(i64 16, ptr nonnull %ts.i)
  %call.i = call i32 @clock_gettime(i32 noundef 1, ptr noundef nonnull %ts.i) #7
  %cmp.i = icmp eq i32 %call.i, 22
  br i1 %cmp.i, label %if.then.i, label %_ZN2EA4StdC9Stopwatch17GetStopwatchCycleEv.exit

if.then.i:                                        ; preds = %if.else
  %call1.i = call i32 @clock_gettime(i32 noundef 0, ptr noundef nonnull %ts.i) #7
  br label %_ZN2EA4StdC9Stopwatch17GetStopwatchCycleEv.exit

_ZN2EA4StdC9Stopwatch17GetStopwatchCycleEv.exit:  ; preds = %if.else, %if.then.i
  %tv_nsec.i = getelementptr inbounds nuw i8, ptr %ts.i, i64 8
  %4 = load i64, ptr %tv_nsec.i, align 8
  %5 = load i64, ptr %ts.i, align 8
  %mul.i = mul i64 %5, 1000000000
  %add.i = add i64 %mul.i, %4
  call void @llvm.lifetime.end.p0(i64 16, ptr nonnull %ts.i)
  br label %if.end

if.end:                                           ; preds = %_ZN2EA4StdC9Stopwatch17GetStopwatchCycleEv.exit, %if.then2
  %nCurrentTime.0 = phi i64 [ %3, %if.then2 ], [ %add.i, %_ZN2EA4StdC9Stopwatch17GetStopwatchCycleEv.exit ]
  %6 = load i64, ptr %this, align 8
  %sub = sub i64 %nCurrentTime.0, %6
  %7 = load i64, ptr @_ZN12_GLOBAL__N_131mnStopwatchCycleReadingOverheadE, align 8
  %cmp5 = icmp ugt i64 %sub, %7
  br i1 %cmp5, label %if.then6, label %if.else8

if.then6:                                         ; preds = %if.end
  %sub7 = sub i64 %0, %7
  %add = add i64 %sub7, %sub
  br label %if.end11

if.else8:                                         ; preds = %if.end
  %add9 = add i64 %0, 1
  br label %if.end11

if.end11:                                         ; preds = %if.then6, %if.else8, %entry
  %nFinalTotalElapsedTime64.0 = phi i64 [ %add, %if.then6 ], [ %add9, %if.else8 ], [ %0, %entry ]
  %conv = uitofp i64 %nFinalTotalElapsedTime64.0 to float
  %mfStopwatchCyclesToUnitsCoefficient = getelementptr inbounds nuw i8, ptr %this, i64 20
  %8 = load float, ptr %mfStopwatchCyclesToUnitsCoefficient, align 4
  %mul = fmul float %8, %conv
  ret float %mul
}